; Function Attrs: null_pointer_is_valid sspstrong uwtable
define hidden i32 @mapi_dissect_struct_GetHierarchyTable_req(ptr noundef %0, i32 noundef %1, ptr noundef %2, ptr noundef %3, ptr noundef %4, ptr noundef %5, i32 noundef %6, i32 %7) local_unnamed_addr #0 {
  %9 = alloca i8, align 1
  %10 = getelementptr inbounds nuw i8, ptr %4, i64 26
  %11 = load i8, ptr %10, align 2, !range !9, !noundef !10
  store i8 1, ptr %10, align 2
  %.not = icmp eq ptr %3, null
  br i1 %.not, label %16, label %12

12:                                               ; preds = %8
  %13 = tail call ptr @proto_tree_add_item(ptr noundef nonnull %3, i32 noundef %6, ptr noundef %0, i32 noundef %1, i32 noundef -1, i32 noundef 0)
  %14 = load i32, ptr @ett_mapi_GetHierarchyTable_req, align 4
  %15 = tail call ptr @proto_item_add_subtree(ptr noundef %13, i32 noundef %14)
  br label %16

16:                                               ; preds = %12, %8
  %.038 = phi ptr [ %15, %12 ], [ null, %8 ]
  %.0 = phi ptr [ %13, %12 ], [ null, %8 ]
  %17 = load i32, ptr @hf_mapi_LogonId, align 4
  %18 = tail call i32 @PIDL_dissect_uint8(ptr noundef %0, i32 noundef %1, ptr noundef %2, ptr noundef %.038, ptr noundef %4, ptr noundef %5, i32 noundef %17, i32 noundef 0)
  %19 = load i32, ptr @hf_mapi_InputHandleIndex, align 4
  %20 = tail call i32 @PIDL_dissect_uint8(ptr noundef %0, i32 noundef %18, ptr noundef %2, ptr noundef %.038, ptr noundef %4, ptr noundef %5, i32 noundef %19, i32 noundef 0)
  %21 = load i32, ptr @hf_mapi_OutputHandleIndex, align 4
  %22 = tail call i32 @PIDL_dissect_uint8(ptr noundef %0, i32 noundef %20, ptr noundef %2, ptr noundef %.038, ptr noundef %4, ptr noundef %5, i32 noundef %21, i32 noundef 0)
  %23 = load i32, ptr @hf_mapi_GetHierarchyTable_req_TableFlags, align 4
  call void @llvm.lifetime.start.p0(i64 1, ptr nonnull %9) #6
  %24 = load i32, ptr @ett_mapi_TableFlags, align 4
  %25 = load i8, ptr %5, align 1
  %26 = and i8 %25, 16
  %27 = zext nneg i8 %26 to i32
  %28 = shl nuw i32 %27, 27
  %29 = tail call ptr @proto_tree_add_bitmask_with_flags(ptr noundef %.038, ptr noundef %0, i32 noundef %22, i32 noundef %23, i32 noundef %24, ptr noundef nonnull @mapi_dissect_bitmap_TableFlags.mapi_TableFlags_fields, i32 noundef %28, i32 noundef 4)
  %30 = call i32 @dissect_ndr_uint8(ptr noundef %0, i32 noundef %22, ptr noundef %2, ptr noundef %.038, ptr noundef %4, ptr noundef %5, i32 noundef -1, ptr noundef nonnull %9)
  %31 = load i8, ptr %9, align 1
  %.not.i.i = icmp eq i8 %31, 0
  br i1 %.not.i.i, label %32, label %33

32:                                               ; preds = %16
  call void (ptr, ptr, ...) @proto_item_append_text(ptr noundef %29, ptr noundef nonnull @.str.3868)
  %.pre.i.i = load i8, ptr %9, align 1
  br label %33

33:                                               ; preds = %32, %16
  %34 = phi i8 [ %.pre.i.i, %32 ], [ %31, %16 ]
  %35 = and i8 %34, 3
  %.not13.i.i = icmp eq i8 %35, 0
  br i1 %.not13.i.i, label %mapi_dissect_element_GetHierarchyTable_req_TableFlags.exit, label %36

36:                                               ; preds = %33
  store i8 %35, ptr %9, align 1
  %37 = zext nneg i8 %35 to i32
  call void (ptr, ptr, ...) @proto_item_append_text(ptr noundef %29, ptr noundef nonnull @.str.3869, i32 noundef %37)
  br label %mapi_dissect_element_GetHierarchyTable_req_TableFlags.exit

mapi_dissect_element_GetHierarchyTable_req_TableFlags.exit: ; preds = %33, %36
  call void @llvm.lifetime.end.p0(i64 1, ptr nonnull %9) #6
  %38 = sub i32 %30, %1
  call void @proto_item_set_len(ptr noundef %.0, i32 noundef %38)
  store i8 %11, ptr %10, align 2
  ret i32 %30
}